; Function Attrs: nofree norecurse nosync nounwind memory(argmem: read) uwtable
define internal i32 @pix_abs8_x2_c(ptr readnone captures(none) %0, ptr noundef readonly captures(none) %1, ptr noundef readonly captures(none) %2, i64 noundef %3, i32 noundef %4) #5 {
  %6 = icmp sgt i32 %4, 0
  br i1 %6, label %.lr.ph, label %._crit_edge

.lr.ph:                                           ; preds = %5, %.lr.ph
  %.045 = phi i32 [ %105, %.lr.ph ], [ 0, %5 ]
  %.03944 = phi i32 [ %102, %.lr.ph ], [ 0, %5 ]
  %.04043 = phi ptr [ %103, %.lr.ph ], [ %1, %5 ]
  %.04142 = phi ptr [ %104, %.lr.ph ], [ %2, %5 ]
  %7 = load i8, ptr %.04043, align 1, !tbaa !20
  %8 = zext i8 %7 to i32
  %9 = load i8, ptr %.04142, align 1, !tbaa !20
  %10 = zext i8 %9 to i32
  %11 = getelementptr inbounds nuw i8, ptr %.04142, i64 1
  %12 = load i8, ptr %11, align 1, !tbaa !20
  %13 = zext i8 %12 to i32
  %14 = add nuw nsw i32 %13, 1
  %15 = add nuw nsw i32 %14, %10
  %16 = lshr i32 %15, 1
  %17 = sub nsw i32 %8, %16
  %18 = tail call i32 @llvm.abs.i32(i32 %17, i1 true)
  %19 = add nsw i32 %18, %.03944
  %20 = getelementptr inbounds nuw i8, ptr %.04043, i64 1
  %21 = load i8, ptr %20, align 1, !tbaa !20
  %22 = zext i8 %21 to i32
  %23 = getelementptr inbounds nuw i8, ptr %.04142, i64 2
  %24 = load i8, ptr %23, align 1, !tbaa !20
  %25 = zext i8 %24 to i32
  %26 = add nuw nsw i32 %14, %25
  %27 = lshr i32 %26, 1
  %28 = sub nsw i32 %22, %27
  %29 = tail call i32 @llvm.abs.i32(i32 %28, i1 true)
  %30 = add nsw i32 %19, %29
  %31 = getelementptr inbounds nuw i8, ptr %.04043, i64 2
  %32 = load i8, ptr %31, align 1, !tbaa !20
  %33 = zext i8 %32 to i32
  %34 = getelementptr inbounds nuw i8, ptr %.04142, i64 3
  %35 = load i8, ptr %34, align 1, !tbaa !20
  %36 = zext i8 %35 to i32
  %37 = add nuw nsw i32 %25, 1
  %38 = add nuw nsw i32 %37, %36
  %39 = lshr i32 %38, 1
  %40 = sub nsw i32 %33, %39
  %41 = tail call i32 @llvm.abs.i32(i32 %40, i1 true)
  %42 = add nsw i32 %30, %41
  %43 = getelementptr inbounds nuw i8, ptr %.04043, i64 3
  %44 = load i8, ptr %43, align 1, !tbaa !20
  %45 = zext i8 %44 to i32
  %46 = getelementptr inbounds nuw i8, ptr %.04142, i64 4
  %47 = load i8, ptr %46, align 1, !tbaa !20
  %48 = zext i8 %47 to i32
  %49 = add nuw nsw i32 %36, 1
  %50 = add nuw nsw i32 %49, %48
  %51 = lshr i32 %50, 1
  %52 = sub nsw i32 %45, %51
  %53 = tail call i32 @llvm.abs.i32(i32 %52, i1 true)
  %54 = add nsw i32 %42, %53
  %55 = getelementptr inbounds nuw i8, ptr %.04043, i64 4
  %56 = load i8, ptr %55, align 1, !tbaa !20
  %57 = zext i8 %56 to i32
  %58 = getelementptr inbounds nuw i8, ptr %.04142, i64 5
  %59 = load i8, ptr %58, align 1, !tbaa !20
  %60 = zext i8 %59 to i32
  %61 = add nuw nsw i32 %48, 1
  %62 = add nuw nsw i32 %61, %60
  %63 = lshr i32 %62, 1
  %64 = sub nsw i32 %57, %63
  %65 = tail call i32 @llvm.abs.i32(i32 %64, i1 true)
  %66 = add nsw i32 %54, %65
  %67 = getelementptr inbounds nuw i8, ptr %.04043, i64 5
  %68 = load i8, ptr %67, align 1, !tbaa !20
  %69 = zext i8 %68 to i32
  %70 = getelementptr inbounds nuw i8, ptr %.04142, i64 6
  %71 = load i8, ptr %70, align 1, !tbaa !20
  %72 = zext i8 %71 to i32
  %73 = add nuw nsw i32 %60, 1
  %74 = add nuw nsw i32 %73, %72
  %75 = lshr i32 %74, 1
  %76 = sub nsw i32 %69, %75
  %77 = tail call i32 @llvm.abs.i32(i32 %76, i1 true)
  %78 = add nsw i32 %66, %77
  %79 = getelementptr inbounds nuw i8, ptr %.04043, i64 6
  %80 = load i8, ptr %79, align 1, !tbaa !20
  %81 = zext i8 %80 to i32
  %82 = getelementptr inbounds nuw i8, ptr %.04142, i64 7
  %83 = load i8, ptr %82, align 1, !tbaa !20
  %84 = zext i8 %83 to i32
  %85 = add nuw nsw i32 %72, 1
  %86 = add nuw nsw i32 %85, %84
  %87 = lshr i32 %86, 1
  %88 = sub nsw i32 %81, %87
  %89 = tail call i32 @llvm.abs.i32(i32 %88, i1 true)
  %90 = add nsw i32 %78, %89
  %91 = getelementptr inbounds nuw i8, ptr %.04043, i64 7
  %92 = load i8, ptr %91, align 1, !tbaa !20
  %93 = zext i8 %92 to i32
  %94 = getelementptr inbounds nuw i8, ptr %.04142, i64 8
  %95 = load i8, ptr %94, align 1, !tbaa !20
  %96 = zext i8 %95 to i32
  %97 = add nuw nsw i32 %84, 1
  %98 = add nuw nsw i32 %97, %96
  %99 = lshr i32 %98, 1
  %100 = sub nsw i32 %93, %99
  %101 = tail call i32 @llvm.abs.i32(i32 %100, i1 true)
  %102 = add nsw i32 %90, %101
  %103 = getelementptr inbounds i8, ptr %.04043, i64 %3
  %104 = getelementptr inbounds i8, ptr %.04142, i64 %3
  %105 = add nuw nsw i32 %.045, 1
  %exitcond.not = icmp eq i32 %105, %4
  br i1 %exitcond.not, label %._crit_edge, label %.lr.ph, !llvm.loop !26

._crit_edge:                                      ; preds = %.lr.ph, %5
  %.039.lcssa = phi i32 [ 0, %5 ], [ %102, %.lr.ph ]
  ret i32 %.039.lcssa
}